target datalayout = "e-m:e-p270:32:32-p271:32:32-p272:64:64-i64:64-i128:128-f80:128-n8:16:32:64-S128"
target triple = "x86_64-pc-linux-gnu"

%class.OopClosure = type { ptr }
%"class.G1NMethodClosure::HeapRegionGatheringOopClosure" = type { %class.OopClosure, ptr, ptr, ptr }
%"class.G1NMethodClosure::MarkingOopClosure" = type <{ %class.OopClosure, ptr, i32, [4 x i8] }>
%class.G1NMethodClosure = type <{ %class.NMethodClosure, %"class.G1NMethodClosure::HeapRegionGatheringOopClosure", %"class.G1NMethodClosure::MarkingOopClosure", i8, [7 x i8] }>
%class.NMethodClosure = type { ptr }
%class.G1NmethodProcessor = type { %"class.nmethod::OopsDoProcessor", ptr }
%"class.nmethod::OopsDoProcessor" = type { ptr }

@_ZTV18G1NmethodProcessor = linkonce_odr hidden unnamed_addr constant { [4 x ptr] } { [4 x ptr] [ptr null, ptr null, ptr @_ZN18G1NmethodProcessor21do_regular_processingEP7nmethod, ptr @_ZN18G1NmethodProcessor30do_remaining_strong_processingEP7nmethod] }, comdat, align 8
@_ZTVN7nmethod15OopsDoProcessorE = linkonce_odr hidden unnamed_addr constant { [4 x ptr] } { [4 x ptr] [ptr null, ptr null, ptr @__cxa_pure_virtual, ptr @__cxa_pure_virtual] }, comdat, align 8

; Function Attrs: mustprogress nounwind uwtable
define linkonce_odr hidden void @_ZN7nmethod15OopsDoProcessorC2Ev(ptr noundef nonnull align 8 dereferenceable(8) %0) unnamed_addr #1 comdat align 2 {
  %2 = alloca ptr, align 8
  store ptr %0, ptr %2, align 8
  %3 = load ptr, ptr %2, align 8
  store ptr getelementptr inbounds inrange(-16, 16) ({ [4 x ptr] }, ptr @_ZTVN7nmethod15OopsDoProcessorE, i32 0, i32 0, i32 2), ptr %3, align 8
  ret void
}

; Function Attrs: mustprogress nounwind uwtable
define linkonce_odr hidden void @_ZN18G1NmethodProcessorC2EP16G1NMethodClosure(ptr noundef nonnull align 8 dereferenceable(16) %0, ptr noundef %1) unnamed_addr #1 comdat align 2 {
  %3 = alloca ptr, align 8
  %4 = alloca ptr, align 8
  store ptr %0, ptr %3, align 8
  store ptr %1, ptr %4, align 8
  %5 = load ptr, ptr %3, align 8
  call void @_ZN7nmethod15OopsDoProcessorC2Ev(ptr noundef nonnull align 8 dereferenceable(8) %5) #8
  store ptr getelementptr inbounds inrange(-16, 16) ({ [4 x ptr] }, ptr @_ZTV18G1NmethodProcessor, i32 0, i32 0, i32 2), ptr %5, align 8
  %6 = getelementptr inbounds %class.G1NmethodProcessor, ptr %5, i32 0, i32 1
  %7 = load ptr, ptr %4, align 8
  store ptr %7, ptr %6, align 8
  ret void
}

; Function Attrs: mustprogress nounwind uwtable
define hidden void @_ZN16G1NMethodClosure10do_nmethodEP7nmethod(ptr noundef nonnull align 8 dereferenceable(65) %0, ptr noundef %1) unnamed_addr #1 align 2 {
  %3 = alloca ptr, align 8
  %4 = alloca ptr, align 8
  %5 = alloca %class.G1NmethodProcessor, align 8
  store ptr %0, ptr %3, align 8
  store ptr %1, ptr %4, align 8
  %6 = load ptr, ptr %3, align 8
  call void @_ZN18G1NmethodProcessorC2EP16G1NMethodClosure(ptr noundef nonnull align 8 dereferenceable(16) %5, ptr noundef %6)
  %7 = getelementptr inbounds %class.G1NMethodClosure, ptr %6, i32 0, i32 3
  %8 = load i8, ptr %7, align 8
  %9 = trunc i8 %8 to i1
  br i1 %9, label %10, label %12

10:                                               ; preds = %2
  %11 = load ptr, ptr %4, align 8
  call void @_ZN7nmethod22oops_do_process_strongEPNS_15OopsDoProcessorE(ptr noundef nonnull align 8 dereferenceable(214) %11, ptr noundef %5)
  br label %14

12:                                               ; preds = %2
  %13 = load ptr, ptr %4, align 8
  call void @_ZN7nmethod20oops_do_process_weakEPNS_15OopsDoProcessorE(ptr noundef nonnull align 8 dereferenceable(214) %13, ptr noundef %5)
  br label %14

14:                                               ; preds = %12, %10
  ret void
}