; Function Attrs: mustprogress nounwind uwtable
define hidden void @_ZN16G1NMethodClosure10do_nmethodEP7nmethod(ptr noundef nonnull align 8 dereferenceable(65) %0, ptr noundef %1) unnamed_addr #0 align 2 {
  %3 = alloca %class.G1NmethodProcessor, align 8
  store ptr getelementptr inbounds inrange(-16, 16) (i8, ptr @_ZTV18G1NmethodProcessor, i64 16), ptr %3, align 8
  %4 = getelementptr inbounds i8, ptr %3, i64 8
  store ptr %0, ptr %4, align 8
  %5 = getelementptr inbounds i8, ptr %0, i64 64
  %6 = load i8, ptr %5, align 8
  %7 = trunc i8 %6 to i1
  br i1 %7, label %8, label %9

8:                                                ; preds = %2
  call void @_ZN7nmethod22oops_do_process_strongEPNS_15OopsDoProcessorE(ptr noundef nonnull align 8 dereferenceable(214) %1, ptr noundef nonnull %3) #8
  br label %10

9:                                                ; preds = %2
  call void @_ZN7nmethod20oops_do_process_weakEPNS_15OopsDoProcessorE(ptr noundef nonnull align 8 dereferenceable(214) %1, ptr noundef nonnull %3) #8
  br label %10

10:                                               ; preds = %9, %8
  ret void
}